; Function Attrs: mustprogress nofree norecurse nosync nounwind willreturn memory(readwrite, inaccessiblemem: none) uwtable
define hidden void @_ZN5nlsat6solver7inc_refEj(ptr nocapture noundef nonnull readonly align 8 dereferenceable(16) %this, i32 noundef %b) local_unnamed_addr #13 align 2 {
entry:
  %cmp.i = icmp eq i32 %b, 2147483647
  br i1 %cmp.i, label %_ZN5nlsat6solver3imp7inc_refEj.exit, label %if.end.i

if.end.i:                                         ; preds = %entry
  %0 = load ptr, ptr %this, align 8
  %m_atoms.i = getelementptr inbounds i8, ptr %0, i64 360
  %1 = load ptr, ptr %m_atoms.i, align 8
  %idxprom.i.i = zext i32 %b to i64
  %arrayidx.i.i = getelementptr inbounds ptr, ptr %1, i64 %idxprom.i.i
  %2 = load ptr, ptr %arrayidx.i.i, align 8
  %cmp2.i = icmp eq ptr %2, null
  br i1 %cmp2.i, label %_ZN5nlsat6solver3imp7inc_refEj.exit, label %if.end4.i

if.end4.i:                                        ; preds = %if.end.i
  %m_ref_count.i.i = getelementptr inbounds i8, ptr %2, i64 4
  %3 = load i32, ptr %m_ref_count.i.i, align 4
  %inc.i.i = add i32 %3, 1
  store i32 %inc.i.i, ptr %m_ref_count.i.i, align 4
  br label %_ZN5nlsat6solver3imp7inc_refEj.exit

_ZN5nlsat6solver3imp7inc_refEj.exit:              ; preds = %entry, %if.end.i, %if.end4.i
  ret void
}